target datalayout = "e-m:e-p270:32:32-p271:32:32-p272:64:64-i64:64-i128:128-f80:128-n8:16:32:64-S128"
target triple = "x86_64-pc-linux-gnu"

%struct.nstime_t = type { i64 }
%struct.malloc_mutex_s = type { %union.anon }
%union.anon = type { %struct.anon }
%struct.anon = type { %struct.mutex_prof_data_t, %struct.atomic_b_t, %union.pthread_mutex_t }
%struct.mutex_prof_data_t = type { %struct.nstime_t, %struct.nstime_t, i64, i64, i32, %struct.atomic_u32_t, i64, ptr, i64 }
%struct.atomic_u32_t = type { i32 }
%struct.atomic_b_t = type { i8 }
%union.pthread_mutex_t = type { %struct.__pthread_mutex_s }
%struct.__pthread_mutex_s = type { i32, i32, i32, i32, i32, i16, i16, %struct.__pthread_internal_list }
%struct.__pthread_internal_list = type { ptr, ptr }
%union.pthread_mutexattr_t = type { i32 }

@nstime_zero = internal constant %struct.nstime_t zeroinitializer, align 8

; Function Attrs: alwaysinline nounwind uwtable
define internal void @nstime_init_zero(ptr noundef %0) #3 {
  %2 = alloca ptr, align 8
  store ptr %0, ptr %2, align 8, !tbaa !8
  %3 = load ptr, ptr %2, align 8, !tbaa !8
  call void @duckdb_je_nstime_copy(ptr noundef %3, ptr noundef @nstime_zero)
  ret void
}

; Function Attrs: nounwind uwtable
define internal void @mutex_prof_data_init(ptr noundef %0) #0 {
  %2 = alloca ptr, align 8
  store ptr %0, ptr %2, align 8, !tbaa !8
  %3 = load ptr, ptr %2, align 8, !tbaa !8
  call void @llvm.memset.p0.i64(ptr align 8 %3, i8 0, i64 64, i1 false)
  %4 = load ptr, ptr %2, align 8, !tbaa !8
  %5 = getelementptr inbounds nuw %struct.mutex_prof_data_t, ptr %4, i32 0, i32 1
  call void @nstime_init_zero(ptr noundef %5)
  %6 = load ptr, ptr %2, align 8, !tbaa !8
  %7 = getelementptr inbounds nuw %struct.mutex_prof_data_t, ptr %6, i32 0, i32 0
  call void @nstime_init_zero(ptr noundef %7)
  %8 = load ptr, ptr %2, align 8, !tbaa !8
  %9 = getelementptr inbounds nuw %struct.mutex_prof_data_t, ptr %8, i32 0, i32 7
  store ptr null, ptr %9, align 8, !tbaa !26
  ret void
}

; Function Attrs: nounwind uwtable
define zeroext i1 @duckdb_je_malloc_mutex_init(ptr noundef %0, ptr noundef %1, i32 noundef %2, i32 noundef %3) #0 {
  %5 = alloca i1, align 1
  %6 = alloca ptr, align 8
  %7 = alloca ptr, align 8
  %8 = alloca i32, align 4
  %9 = alloca i32, align 4
  %10 = alloca %union.pthread_mutexattr_t, align 4
  %11 = alloca i32, align 4
  store ptr %0, ptr %6, align 8, !tbaa !3
  store ptr %1, ptr %7, align 8, !tbaa !27
  store i32 %2, ptr %8, align 4, !tbaa !9
  store i32 %3, ptr %9, align 4, !tbaa !9
  %12 = load ptr, ptr %6, align 8, !tbaa !3
  %13 = getelementptr inbounds nuw %struct.malloc_mutex_s, ptr %12, i32 0, i32 0
  %14 = getelementptr inbounds nuw %struct.anon, ptr %13, i32 0, i32 0
  call void @mutex_prof_data_init(ptr noundef %14)
  call void @llvm.lifetime.start.p0(i64 4, ptr %10) #8
  %15 = call i32 @pthread_mutexattr_init(ptr noundef %10) #8
  %16 = icmp ne i32 %15, 0
  br i1 %16, label %17, label %18

17:                                               ; preds = %4
  store i1 true, ptr %5, align 1
  store i32 1, ptr %11, align 4
  br label %29

18:                                               ; preds = %4
  %19 = call i32 @pthread_mutexattr_settype(ptr noundef %10, i32 noundef 0) #8
  %20 = load ptr, ptr %6, align 8, !tbaa !3
  %21 = getelementptr inbounds nuw %struct.malloc_mutex_s, ptr %20, i32 0, i32 0
  %22 = getelementptr inbounds nuw %struct.anon, ptr %21, i32 0, i32 2
  %23 = call i32 @pthread_mutex_init(ptr noundef %22, ptr noundef %10) #8
  %24 = icmp ne i32 %23, 0
  br i1 %24, label %25, label %27

25:                                               ; preds = %18
  %26 = call i32 @pthread_mutexattr_destroy(ptr noundef %10) #8
  store i1 true, ptr %5, align 1
  store i32 1, ptr %11, align 4
  br label %29

27:                                               ; preds = %18
  %28 = call i32 @pthread_mutexattr_destroy(ptr noundef %10) #8
  store i1 false, ptr %5, align 1
  store i32 1, ptr %11, align 4
  br label %29

29:                                               ; preds = %27, %25, %17
  call void @llvm.lifetime.end.p0(i64 4, ptr %10) #8
  %30 = load i1, ptr %5, align 1
  ret i1 %30
}